; Function Attrs: nounwind uwtable
define noalias nonnull ptr @l_Lean_Server_wrapRpcProcedure___at_Lean_Widget_initFn____x40_Lean_Server_FileWorker_WidgetRequests___hyg_1615____spec__2(ptr noundef %0, ptr noundef %1) local_unnamed_addr #1 {
  %3 = load ptr, ptr @l_Lean_Server_wrapRpcProcedure___at_Lean_Widget_initFn____x40_Lean_Server_FileWorker_WidgetRequests___hyg_1615____spec__2___closed__1, align 8, !tbaa !4
  %4 = load ptr, ptr @l_Lean_Server_wrapRpcProcedure___at_Lean_Widget_initFn____x40_Lean_Server_FileWorker_WidgetRequests___hyg_1615____spec__2___closed__2, align 8, !tbaa !4
  tail call void @lean_inc_heartbeat() #5
  %5 = tail call noalias ptr @mi_malloc_small(i64 noundef 72) #5
  %6 = icmp eq ptr %5, null
  br i1 %6, label %7, label %lean_alloc_closure.exit

7:                                                ; preds = %2
  tail call void @lean_internal_panic_out_of_memory() #6
  unreachable

lean_alloc_closure.exit:                          ; preds = %2
  %8 = getelementptr inbounds nuw i8, ptr %5, i64 4
  store i32 1, ptr %5, align 4, !tbaa !8
  store i32 -184549304, ptr %8, align 4
  %9 = getelementptr inbounds nuw i8, ptr %5, i64 8
  store ptr @l_Lean_Server_wrapRpcProcedure___elambda__1___boxed, ptr %9, align 8, !tbaa !4
  %10 = getelementptr inbounds nuw i8, ptr %5, i64 16
  store i16 10, ptr %10, align 8, !tbaa !14
  %11 = getelementptr inbounds nuw i8, ptr %5, i64 18
  store i16 6, ptr %11, align 2, !tbaa !14
  %12 = getelementptr inbounds nuw i8, ptr %5, i64 24
  store ptr %0, ptr %12, align 8, !tbaa !4
  %13 = getelementptr inbounds nuw i8, ptr %5, i64 32
  store ptr inttoptr (i64 1 to ptr), ptr %13, align 8, !tbaa !4
  %14 = getelementptr inbounds nuw i8, ptr %5, i64 40
  store ptr inttoptr (i64 1 to ptr), ptr %14, align 8, !tbaa !4
  %15 = getelementptr inbounds nuw i8, ptr %5, i64 48
  store ptr %3, ptr %15, align 8, !tbaa !4
  %16 = getelementptr inbounds nuw i8, ptr %5, i64 56
  store ptr %4, ptr %16, align 8, !tbaa !4
  %17 = getelementptr inbounds nuw i8, ptr %5, i64 64
  store ptr %1, ptr %17, align 8, !tbaa !4
  ret ptr %5
}